target datalayout = "e-m:e-p270:32:32-p271:32:32-p272:64:64-i64:64-i128:128-f80:128-n8:16:32:64-S128"
target triple = "x86_64-pc-linux-gnu"

%struct.xlist = type { i32, i32, ptr, ptr, ptr, ptr, %union.pthread_rwlock_t, ptr, ptr, [0 x %struct.listNode] }
%union.pthread_rwlock_t = type { %struct.__pthread_rwlock_arch_t }
%struct.__pthread_rwlock_arch_t = type { i32, i32, i32, i32, i32, i32, i32, i32, i8, [7 x i8], i64, i32 }
%struct.listNode = type { ptr, ptr }

@.str.3 = private unnamed_addr constant [32 x i8] c"%s: pthread_rwlock_unlock(): %m\00", align 1
@.str.5 = private unnamed_addr constant [32 x i8] c"%s: pthread_rwlock_rdlock(): %m\00", align 1
@__func__.list_is_empty = private unnamed_addr constant [14 x i8] c"list_is_empty\00", align 1

; Function Attrs: nounwind uwtable
define dso_local i32 @list_is_empty(ptr noundef %0) #0 {
  %2 = alloca ptr, align 8
  %3 = alloca i32, align 4
  %4 = alloca i32, align 4
  %5 = alloca i32, align 4
  store ptr %0, ptr %2, align 8
  call void @llvm.lifetime.start.p0(i64 4, ptr %3) #6
  br label %6

6:                                                ; preds = %1
  call void @llvm.lifetime.start.p0(i64 4, ptr %4) #6
  %7 = load ptr, ptr %2, align 8
  %8 = getelementptr inbounds nuw %struct.xlist, ptr %7, i32 0, i32 6
  %9 = call i32 @pthread_rwlock_rdlock(ptr noundef %8) #6
  store i32 %9, ptr %4, align 4
  %10 = load i32, ptr %4, align 4
  %11 = icmp ne i32 %10, 0
  br i1 %11, label %12, label %15

12:                                               ; preds = %6
  %13 = load i32, ptr %4, align 4
  %14 = call ptr @__errno_location() #7
  store i32 %13, ptr %14, align 4
  call void (ptr, ...) @fatal_abort(ptr noundef @.str.5, ptr noundef @__func__.list_is_empty) #8
  unreachable

15:                                               ; preds = %6
  call void @llvm.lifetime.end.p0(i64 4, ptr %4) #6
  br label %16

16:                                               ; preds = %15
  br label %17

17:                                               ; preds = %16
  %18 = load ptr, ptr %2, align 8
  %19 = getelementptr inbounds nuw %struct.xlist, ptr %18, i32 0, i32 1
  %20 = load i32, ptr %19, align 4
  store i32 %20, ptr %3, align 4
  br label %21

21:                                               ; preds = %17
  call void @llvm.lifetime.start.p0(i64 4, ptr %5) #6
  %22 = load ptr, ptr %2, align 8
  %23 = getelementptr inbounds nuw %struct.xlist, ptr %22, i32 0, i32 6
  %24 = call i32 @pthread_rwlock_unlock(ptr noundef %23) #6
  store i32 %24, ptr %5, align 4
  %25 = load i32, ptr %5, align 4
  %26 = icmp ne i32 %25, 0
  br i1 %26, label %27, label %30

27:                                               ; preds = %21
  %28 = load i32, ptr %5, align 4
  %29 = call ptr @__errno_location() #7
  store i32 %28, ptr %29, align 4
  call void (ptr, ...) @fatal_abort(ptr noundef @.str.3, ptr noundef @__func__.list_is_empty) #8
  unreachable

30:                                               ; preds = %21
  call void @llvm.lifetime.end.p0(i64 4, ptr %5) #6
  br label %31

31:                                               ; preds = %30
  br label %32

32:                                               ; preds = %31
  %33 = load i32, ptr %3, align 4
  %34 = icmp eq i32 %33, 0
  %35 = zext i1 %34 to i32
  call void @llvm.lifetime.end.p0(i64 4, ptr %3) #6
  ret i32 %35
}