; Function Attrs: nounwind uwtable
define dso_local range(i32 0, 2) i32 @list_is_empty(ptr noundef %0) #0 {
  %2 = getelementptr inbounds nuw i8, ptr %0, i64 40
  %3 = tail call i32 @pthread_rwlock_rdlock(ptr noundef nonnull %2) #9
  %.not = icmp eq i32 %3, 0
  br i1 %.not, label %6, label %4

4:                                                ; preds = %1
  %5 = tail call ptr @__errno_location() #10
  store i32 %3, ptr %5, align 4
  tail call void (ptr, ...) @fatal_abort(ptr noundef nonnull @.str.5, ptr noundef nonnull @__func__.list_is_empty) #11
  unreachable

6:                                                ; preds = %1
  %7 = getelementptr inbounds nuw i8, ptr %0, i64 4
  %8 = load i32, ptr %7, align 4
  %9 = tail call i32 @pthread_rwlock_unlock(ptr noundef nonnull %2) #9
  %.not8 = icmp eq i32 %9, 0
  br i1 %.not8, label %12, label %10

10:                                               ; preds = %6
  %11 = tail call ptr @__errno_location() #10
  store i32 %9, ptr %11, align 4
  tail call void (ptr, ...) @fatal_abort(ptr noundef nonnull @.str.3, ptr noundef nonnull @__func__.list_is_empty) #11
  unreachable

12:                                               ; preds = %6
  %13 = icmp eq i32 %8, 0
  %14 = zext i1 %13 to i32
  ret i32 %14
}